; Function Attrs: nounwind uwtable
define internal void @_init_group(ptr noundef %0, ptr nocapture noundef readonly %1) #0 {
  %3 = getelementptr inbounds nuw i8, ptr %0, i64 464
  tail call void @lv_matrix_identity(ptr noundef nonnull %3) #9
  %4 = getelementptr inbounds nuw i8, ptr %0, i64 576
  %5 = getelementptr inbounds nuw i8, ptr %1, i64 16
  %6 = load i32, ptr %5, align 8, !tbaa !148
  tail call void @lv_array_init(ptr noundef nonnull %4, i32 noundef %6, i32 noundef 8) #9
  ret void
}